; Function Attrs: nounwind uwtable
define void @Res_WinComputeRoots_rec(ptr noundef %0, i32 noundef %1, i32 noundef %2, ptr noundef captures(none) %3) local_unnamed_addr #2 {
  %.val2.i = load ptr, ptr %0, align 8
  %5 = getelementptr i8, ptr %0, i64 16
  %.val3.i = load i32, ptr %5, align 8
  %6 = getelementptr inbounds nuw i8, ptr %.val2.i, i64 224
  %7 = add nsw i32 %.val3.i, 1
  tail call fastcc void @Vec_IntFillExtra(ptr noundef nonnull %6, i32 noundef %7)
  %8 = getelementptr i8, ptr %.val2.i, i64 232
  %.val.i.i.i = load ptr, ptr %8, align 8
  %9 = sext i32 %.val3.i to i64
  %10 = getelementptr inbounds i32, ptr %.val.i.i.i, i64 %9
  %11 = load i32, ptr %10, align 4
  %.val.i = load ptr, ptr %0, align 8
  %12 = getelementptr inbounds nuw i8, ptr %.val.i, i64 216
  %13 = load i32, ptr %12, align 8
  %.not = icmp eq i32 %11, %13
  br i1 %.not, label %.critedge, label %14

14:                                               ; preds = %4
  %.val16 = load i32, ptr %5, align 8
  %15 = getelementptr inbounds nuw i8, ptr %.val.i, i64 224
  %16 = add nsw i32 %.val16, 1
  tail call fastcc void @Vec_IntFillExtra(ptr noundef nonnull %15, i32 noundef %16)
  %17 = getelementptr i8, ptr %.val.i, i64 232
  %.val.i.i.i20 = load ptr, ptr %17, align 8
  %18 = sext i32 %.val16 to i64
  %19 = getelementptr inbounds i32, ptr %.val.i.i.i20, i64 %18
  store i32 %13, ptr %19, align 4
  %20 = getelementptr i8, ptr %0, i64 44
  %.val.i21 = load i32, ptr %20, align 4
  %21 = icmp sgt i32 %.val.i21, %2
  br i1 %21, label %.loopexit, label %.preheader.i

.preheader.i:                                     ; preds = %14
  %22 = icmp sgt i32 %.val.i21, 0
  br i1 %22, label %.lr.ph.i, label %.critedge

.lr.ph.i:                                         ; preds = %.preheader.i
  %.val12.i = load ptr, ptr %0, align 8
  %23 = getelementptr i8, ptr %0, i64 48
  %.val13.i = load ptr, ptr %23, align 8
  %24 = getelementptr i8, ptr %.val12.i, i64 32
  %.val12.val.i = load ptr, ptr %24, align 8
  %25 = getelementptr i8, ptr %.val12.val.i, i64 8
  %.val12.val.val.i = load ptr, ptr %25, align 8
  %wide.trip.count.i = zext nneg i32 %.val.i21 to i64
  br label %27

26:                                               ; preds = %27
  %indvars.iv.next.i = add nuw nsw i64 %indvars.iv.i, 1
  %exitcond.not.i = icmp eq i64 %indvars.iv.next.i, %wide.trip.count.i
  br i1 %exitcond.not.i, label %.lr.ph, label %27, !llvm.loop !17

27:                                               ; preds = %26, %.lr.ph.i
  %indvars.iv.i = phi i64 [ 0, %.lr.ph.i ], [ %indvars.iv.next.i, %26 ]
  %28 = getelementptr inbounds nuw i32, ptr %.val13.i, i64 %indvars.iv.i
  %29 = load i32, ptr %28, align 4
  %30 = sext i32 %29 to i64
  %31 = getelementptr inbounds ptr, ptr %.val12.val.val.i, i64 %30
  %32 = load ptr, ptr %31, align 8
  %33 = getelementptr i8, ptr %32, i64 20
  %.val14.i = load i32, ptr %33, align 4
  %34 = and i32 %.val14.i, 15
  %35 = add nsw i32 %34, -3
  %narrow.i.i = icmp ult i32 %35, 2
  %36 = lshr i32 %.val14.i, 12
  %37 = icmp sgt i32 %36, %1
  %or.cond.i = or i1 %37, %narrow.i.i
  br i1 %or.cond.i, label %.loopexit, label %26

.lr.ph:                                           ; preds = %26
  %38 = getelementptr i8, ptr %0, i64 48
  br label %70

.loopexit:                                        ; preds = %27, %14
  %39 = getelementptr inbounds nuw i8, ptr %3, i64 4
  %40 = load i32, ptr %39, align 4
  %41 = load i32, ptr %3, align 8
  %42 = icmp eq i32 %40, %41
  br i1 %42, label %43, label %.Vec_PtrGrow.exit11_crit_edge.i

.Vec_PtrGrow.exit11_crit_edge.i:                  ; preds = %.loopexit
  %.phi.trans.insert.i = getelementptr inbounds nuw i8, ptr %3, i64 8
  %.pre.i = load ptr, ptr %.phi.trans.insert.i, align 8
  br label %Vec_PtrPush.exit

43:                                               ; preds = %.loopexit
  %44 = icmp slt i32 %40, 16
  br i1 %44, label %45, label %53

45:                                               ; preds = %43
  %46 = getelementptr inbounds nuw i8, ptr %3, i64 8
  %47 = load ptr, ptr %46, align 8
  %.not9.i.i = icmp eq ptr %47, null
  br i1 %.not9.i.i, label %50, label %48

48:                                               ; preds = %45
  %49 = tail call dereferenceable_or_null(128) ptr @realloc(ptr noundef nonnull %47, i64 noundef 128) #10
  br label %Vec_PtrGrow.exit.i

50:                                               ; preds = %45
  %51 = tail call noalias dereferenceable_or_null(128) ptr @malloc(i64 noundef 128) #8
  br label %Vec_PtrGrow.exit.i

Vec_PtrGrow.exit.i:                               ; preds = %50, %48
  %52 = phi ptr [ %49, %48 ], [ %51, %50 ]
  store ptr %52, ptr %46, align 8
  store i32 16, ptr %3, align 8
  br label %Vec_PtrPush.exit

53:                                               ; preds = %43
  %54 = shl nuw nsw i32 %40, 1
  %55 = getelementptr inbounds nuw i8, ptr %3, i64 8
  %56 = load ptr, ptr %55, align 8
  %.not9.i10.i = icmp eq ptr %56, null
  %57 = zext nneg i32 %54 to i64
  %58 = shl nuw nsw i64 %57, 3
  br i1 %.not9.i10.i, label %61, label %59

59:                                               ; preds = %53
  %60 = tail call ptr @realloc(ptr noundef nonnull %56, i64 noundef %58) #10
  br label %63

61:                                               ; preds = %53
  %62 = tail call noalias ptr @malloc(i64 noundef %58) #8
  br label %63

63:                                               ; preds = %61, %59
  %64 = phi ptr [ %60, %59 ], [ %62, %61 ]
  store ptr %64, ptr %55, align 8
  store i32 %54, ptr %3, align 8
  br label %Vec_PtrPush.exit

Vec_PtrPush.exit:                                 ; preds = %.Vec_PtrGrow.exit11_crit_edge.i, %Vec_PtrGrow.exit.i, %63
  %65 = phi ptr [ %.pre.i, %.Vec_PtrGrow.exit11_crit_edge.i ], [ %64, %63 ], [ %52, %Vec_PtrGrow.exit.i ]
  %66 = load i32, ptr %39, align 4
  %67 = add nsw i32 %66, 1
  store i32 %67, ptr %39, align 4
  %68 = sext i32 %66 to i64
  %69 = getelementptr inbounds ptr, ptr %65, i64 %68
  store ptr %0, ptr %69, align 8
  br label %.critedge

70:                                               ; preds = %.lr.ph, %70
  %indvars.iv = phi i64 [ 0, %.lr.ph ], [ %indvars.iv.next, %70 ]
  %.val18 = load ptr, ptr %0, align 8
  %.val19 = load ptr, ptr %38, align 8
  %71 = getelementptr i8, ptr %.val18, i64 32
  %.val18.val = load ptr, ptr %71, align 8
  %72 = getelementptr i8, ptr %.val18.val, i64 8
  %.val18.val.val = load ptr, ptr %72, align 8
  %73 = getelementptr inbounds nuw i32, ptr %.val19, i64 %indvars.iv
  %74 = load i32, ptr %73, align 4
  %75 = sext i32 %74 to i64
  %76 = getelementptr inbounds ptr, ptr %.val18.val.val, i64 %75
  %77 = load ptr, ptr %76, align 8
  tail call void @Res_WinComputeRoots_rec(ptr noundef %77, i32 noundef %1, i32 noundef %2, ptr noundef %3)
  %indvars.iv.next = add nuw nsw i64 %indvars.iv, 1
  %.val17 = load i32, ptr %20, align 4
  %78 = sext i32 %.val17 to i64
  %79 = icmp slt i64 %indvars.iv.next, %78
  br i1 %79, label %70, label %.critedge, !llvm.loop !18

.critedge:                                        ; preds = %70, %.preheader.i, %4, %Vec_PtrPush.exit
  ret void
}